ccopy_reg
_reconstructor
p0
(cpandas.core.frame
DataFrame
p1
c__builtin__
object
p2
Ntp3
Rp4
g0
(cpandas.core.internals
BlockManager
p5
g2
Ntp6
Rp7
((lp8
cpandas.core.index
_new_Index
p9
(cpandas.core.index
Index
p10
(dp11
S'data'
p12
cnumpy.core.multiarray
_reconstruct
p13
(cnumpy
ndarray
p14
(I0
tp15
S'b'
p16
tp17
Rp18
(I1
(I12
tp19
cnumpy
dtype
p20
(S'O8'
p21
I0
I1
tp22
Rp23
(I3
S'|'
p24
NNNI-1
I-1
I63
tp25
bI00
(lp26
Vindex
p27
aVUP-TO-DATE%
p28
aVCONDI-TIONAL%
p29
aVPME%
p30
aVPBE %
p31
aV4+DTP\u2020 %
p32
aV3+POLIO%
p33
aV1+ MMR%
p34
aV1+HIB%
p35
aV3+HEPB%
p36
aVVARI%
p37
aS'dropout_rate'
p38
atp39
bsS'name'
p40
Nstp41
Rp42
ag9
(cpandas.core.index
Int64Index
p43
(dp44
g12
g13
(g14
(I0
tp45
g16
tp46
Rp47
(I1
(I57
tp48
g20
(S'i8'
p49
I0
I1
tp50
Rp51
(I3
S'<'
p52
NNNI-1
I-1
I0
tp53
bI00
S'\x00\x00\x00\x00\x00\x00\x00\x00\x01\x00\x00\x00\x00\x00\x00\x00\x02\x00\x00\x00\x00\x00\x00\x00\x03\x00\x00\x00\x00\x00\x00\x00\x04\x00\x00\x00\x00\x00\x00\x00\x05\x00\x00\x00\x00\x00\x00\x00\x06\x00\x00\x00\x00\x00\x00\x00\x07\x00\x00\x00\x00\x00\x00\x00\x08\x00\x00\x00\x00\x00\x00\x00\t\x00\x00\x00\x00\x00\x00\x00\n\x00\x00\x00\x00\x00\x00\x00\x0b\x00\x00\x00\x00\x00\x00\x00\x0c\x00\x00\x00\x00\x00\x00\x00\r\x00\x00\x00\x00\x00\x00\x00\x0e\x00\x00\x00\x00\x00\x00\x00\x0f\x00\x00\x00\x00\x00\x00\x00\x10\x00\x00\x00\x00\x00\x00\x00\x11\x00\x00\x00\x00\x00\x00\x00\x12\x00\x00\x00\x00\x00\x00\x00\x13\x00\x00\x00\x00\x00\x00\x00\x14\x00\x00\x00\x00\x00\x00\x00\x15\x00\x00\x00\x00\x00\x00\x00\x16\x00\x00\x00\x00\x00\x00\x00\x17\x00\x00\x00\x00\x00\x00\x00\x18\x00\x00\x00\x00\x00\x00\x00\x19\x00\x00\x00\x00\x00\x00\x00\x1a\x00\x00\x00\x00\x00\x00\x00\x1b\x00\x00\x00\x00\x00\x00\x00\x1c\x00\x00\x00\x00\x00\x00\x00\x1d\x00\x00\x00\x00\x00\x00\x00\x1e\x00\x00\x00\x00\x00\x00\x00\x1f\x00\x00\x00\x00\x00\x00\x00 \x00\x00\x00\x00\x00\x00\x00!\x00\x00\x00\x00\x00\x00\x00"\x00\x00\x00\x00\x00\x00\x00#\x00\x00\x00\x00\x00\x00\x00$\x00\x00\x00\x00\x00\x00\x00%\x00\x00\x00\x00\x00\x00\x00&\x00\x00\x00\x00\x00\x00\x00\'\x00\x00\x00\x00\x00\x00\x00(\x00\x00\x00\x00\x00\x00\x00)\x00\x00\x00\x00\x00\x00\x00*\x00\x00\x00\x00\x00\x00\x00+\x00\x00\x00\x00\x00\x00\x00,\x00\x00\x00\x00\x00\x00\x00-\x00\x00\x00\x00\x00\x00\x00.\x00\x00\x00\x00\x00\x00\x00/\x00\x00\x00\x00\x00\x00\x000\x00\x00\x00\x00\x00\x00\x001\x00\x00\x00\x00\x00\x00\x002\x00\x00\x00\x00\x00\x00\x003\x00\x00\x00\x00\x00\x00\x004\x00\x00\x00\x00\x00\x00\x005\x00\x00\x00\x00\x00\x00\x006\x00\x00\x00\x00\x00\x00\x007\x00\x00\x00\x00\x00\x00\x008\x00\x00\x00\x00\x00\x00\x00'
p54
tp55
bsg40
Nstp56
Rp57
a(lp58
g13
(g14
(I0
tp59
g16
tp60
Rp61
(I1
(I11
I57
tp62
g20
(S'O8'
p63
I0
I1
tp64
Rp65
(I3
S'|'
p66
NNNI-1
I-1
I63
tp67
bI00
(lp68
VALAMEDA
p69
aVAMADOR
p70
aVBUTTE
p71
aVCALAVERAS
p72
aVCOLUSA
p73
aVCONTRA COSTA
p74
aVDEL NORTE
p75
aVEL DORADO
p76
aVFRESNO
p77
aVGLENN
p78
aVHUMBOLDT
p79
aVIMPERIAL
p80
aVINYO
p81
aVKERN
p82
aVKINGS
p83
aVLAKE
p84
aVLASSEN
p85
aVLOS ANGELES
p86
aVMADERA
p87
aVMARIN
p88
aVMARIPOSA
p89
aVMENDOCINO
p90
aVMERCED
p91
aVMODOC
p92
aVMONO
p93
aVMONTEREY
p94
aVNAPA
p95
aVNEVADA
p96
aVORANGE
p97
aVPLACER
p98
aVPLUMAS
p99
aVRIVERSIDE
p100
aVSACRAMENTO
p101
aVSAN BENITO
p102
aVSAN BERNARDINO
p103
aVSAN DIEGO
p104
aVSAN FRANCISCO
p105
aVSAN JOAQUIN
p106
aVSAN LUIS OBISPO
p107
aVSAN MATEO
p108
aVSANTA BARBARA
p109
aVSANTA CLARA
p110
aVSANTA CRUZ
p111
aVSHASTA
p112
aVSIERRA
p113
aVSISKIYOU
p114
aVSOLANO
p115
aVSONOMA
p116
aVSTANISLAUS
p117
aVSUTTER
p118
aVTEHAMA
p119
aVTRINITY
p120
aVTULARE
p121
aVTUOLUMNE
p122
aVVENTURA
p123
aVYOLO
p124
aVYUBA
p125
aS'higher-mid'
p126
aS'low'
p127
aS'low'
p128
aS'lower-mid'
p129
aS'high'
p130
aS'higher-mid'
p131
aS'higher-mid'
p132
aS'low'
p133
aS'high'
p134
aS'high'
p135
aS'low'
p136
aS'high'
p137
aS'higher-mid'
p138
aS'high'
p139
aS'high'
p140
aS'lower-mid'
p141
aS'lower-mid'
p142
aS'higher-mid'
p143
aS'high'
p144
aS'low'
p145
aS'low'
p146
aS'low'
p147
aS'high'
p148
aS'lower-mid'
p149
aS'low'
p150
aS'higher-mid'
p151
aS'higher-mid'
p152
aS'low'
p153
aS'lower-mid'
p154
aS'low'
p155
aS'low'
p156
aS'high'
p157
aS'lower-mid'
p158
aS'high'
p159
aS'high'
p160
aS'higher-mid'
p161
aS'higher-mid'
p162
aS'high'
p163
aS'lower-mid'
p164
aS'higher-mid'
p165
aS'lower-mid'
p166
aS'higher-mid'
p167
aS'low'
p168
aS'lower-mid'
p169
aS'high'
p170
aS'low'
p171
aS'higher-mid'
p172
aS'lower-mid'
p173
aS'higher-mid'
p174
aS'lower-mid'
p175
aS'high'
p176
aS'low'
p177
aS'high'
p178
aS'low'
p179
aS'lower-mid'
p180
aS'higher-mid'
p181
aS'lower-mid'
p182
aS'higher-mid'
p183
aS'high'
p184
aS'high'
p185
aS'low'
p186
aS'low'
p187
aS'lower-mid'
p188
aS'lower-mid'
p189
aS'higher-mid'
p190
aS'low'
p191
aS'low'
p192
aS'high'
p193
aS'low'
p194
aS'lower-mid'
p195
aS'low'
p196
aS'lower-mid'
p197
aS'higher-mid'
p198
aS'higher-mid'
p199
aS'higher-mid'
p200
aS'low'
p201
aS'higher-mid'
p202
aS'high'
p203
aS'higher-mid'
p204
aS'low'
p205
aS'high'
p206
aS'high'
p207
aS'lower-mid'
p208
aS'low'
p209
aS'high'
p210
aS'higher-mid'
p211
aS'high'
p212
aS'high'
p213
aS'low'
p214
aS'high'
p215
aS'lower-mid'
p216
aS'low'
p217
aS'lower-mid'
p218
aS'higher-mid'
p219
aS'lower-mid'
p220
aS'higher-mid'
p221
aS'low'
p222
aS'lower-mid'
p223
aS'higher-mid'
p224
aS'high'
p225
aS'lower-mid'
p226
aS'low'
p227
aS'high'
p228
aS'higher-mid'
p229
aS'lower-mid'
p230
aS'lower-mid'
p231
aS'high'
p232
aS'low'
p233
aS'higher-mid'
p234
aS'low'
p235
aS'high'
p236
aS'higher-mid'
p237
aS'lower-mid'
p238
aS'high'
p239
aS'lower-mid'
p240
aS'high'
p241
aS'higher-mid'
p242
aS'low'
p243
aS'low'
p244
aS'higher-mid'
p245
aS'low'
p246
aS'higher-mid'
p247
aS'lower-mid'
p248
aS'low'
p249
aS'high'
p250
aS'lower-mid'
p251
aS'high'
p252
aS'lower-mid'
p253
aS'lower-mid'
p254
aS'low'
p255
aS'high'
p256
aS'higher-mid'
p257
aS'lower-mid'
p258
aS'higher-mid'
p259
aS'low'
p260
aS'high'
p261
aS'high'
p262
aS'low'
p263
aS'high'
p264
aS'high'
p265
aS'higher-mid'
p266
aS'high'
p267
aS'higher-mid'
p268
aS'higher-mid'
p269
aS'high'
p270
aS'higher-mid'
p271
aS'higher-mid'
p272
aS'low'
p273
aS'low'
p274
aS'lower-mid'
p275
aS'lower-mid'
p276
aS'low'
p277
aS'low'
p278
aS'lower-mid'
p279
aS'higher-mid'
p280
aS'lower-mid'
p281
aS'higher-mid'
p282
aS'lower-mid'
p283
aS'low'
p284
aS'low'
p285
aS'higher-mid'
p286
aS'lower-mid'
p287
aS'higher-mid'
p288
aS'high'
p289
aS'high'
p290
aS'high'
p291
aS'lower-mid'
p292
aS'high'
p293
aS'lower-mid'
p294
aS'low'
p295
aS'low'
p296
aS'lower-mid'
p297
aS'high'
p298
aS'higher-mid'
p299
aS'high'
p300
aS'low'
p301
aS'lower-mid'
p302
aS'higher-mid'
p303
aS'higher-mid'
p304
aS'low'
p305
aS'lower-mid'
p306
aS'high'
p307
aS'low'
p308
aS'low'
p309
aS'lower-mid'
p310
aS'low'
p311
aS'high'
p312
aS'higher-mid'
p313
aS'lower-mid'
p314
aS'low'
p315
aS'high'
p316
aS'high'
p317
aS'high'
p318
aS'low'
p319
aS'higher-mid'
p320
aS'higher-mid'
p321
aS'lower-mid'
p322
aS'higher-mid'
p323
aS'high'
p324
aS'higher-mid'
p325
aS'higher-mid'
p326
aS'high'
p327
aS'lower-mid'
p328
aS'lower-mid'
p329
aS'low'
p330
aS'lower-mid'
p331
aS'higher-mid'
p332
aS'lower-mid'
p333
aS'low'
p334
aS'higher-mid'
p335
aS'lower-mid'
p336
aS'higher-mid'
p337
aS'lower-mid'
p338
aS'high'
p339
aS'high'
p340
aS'low'
p341
aS'high'
p342
aS'low'
p343
aS'higher-mid'
p344
aS'low'
p345
aS'low'
p346
aS'lower-mid'
p347
aS'high'
p348
aS'low'
p349
aS'high'
p350
aS'higher-mid'
p351
aS'lower-mid'
p352
aS'low'
p353
aS'higher-mid'
p354
aS'low'
p355
aS'lower-mid'
p356
aS'lower-mid'
p357
aS'high'
p358
aS'higher-mid'
p359
aS'lower-mid'
p360
aS'low'
p361
aS'higher-mid'
p362
aS'high'
p363
aS'low'
p364
aS'high'
p365
aS'high'
p366
aS'higher-mid'
p367
aS'higher-mid'
p368
aS'low'
p369
aS'low'
p370
aS'higher-mid'
p371
aS'high'
p372
aS'lower-mid'
p373
aS'low'
p374
aS'low'
p375
aS'high'
p376
aS'low'
p377
aS'low'
p378
aS'higher-mid'
p379
aS'high'
p380
aS'low'
p381
aS'higher-mid'
p382
aS'lower-mid'
p383
aS'low'
p384
aS'higher-mid'
p385
aS'lower-mid'
p386
aS'high'
p387
aS'high'
p388
aS'higher-mid'
p389
aS'higher-mid'
p390
aS'high'
p391
aS'lower-mid'
p392
aS'high'
p393
aS'lower-mid'
p394
aS'higher-mid'
p395
aS'low'
p396
aS'lower-mid'
p397
aS'high'
p398
aS'low'
p399
aS'lower-mid'
p400
aS'lower-mid'
p401
aS'higher-mid'
p402
aS'lower-mid'
p403
aS'high'
p404
aS'low'
p405
aS'high'
p406
aS'low'
p407
aS'lower-mid'
p408
aS'high'
p409
aS'lower-mid'
p410
aS'higher-mid'
p411
aS'low'
p412
aS'lower-mid'
p413
aS'lower-mid'
p414
aS'high'
p415
aS'higher-mid'
p416
aS'higher-mid'
p417
aS'lower-mid'
p418
aS'high'
p419
aS'high'
p420
aS'low'
p421
aS'high'
p422
aS'high'
p423
aS'high'
p424
aS'high'
p425
aS'low'
p426
aS'low'
p427
aS'lower-mid'
p428
aS'high'
p429
aS'low'
p430
aS'low'
p431
aS'low'
p432
aS'high'
p433
aS'lower-mid'
p434
aS'lower-mid'
p435
aS'higher-mid'
p436
aS'higher-mid'
p437
aS'low'
p438
aS'lower-mid'
p439
aS'low'
p440
aS'low'
p441
aS'higher-mid'
p442
aS'lower-mid'
p443
aS'higher-mid'
p444
aS'high'
p445
aS'higher-mid'
p446
aS'higher-mid'
p447
aS'high'
p448
aS'lower-mid'
p449
aS'higher-mid'
p450
aS'lower-mid'
p451
aS'higher-mid'
p452
aS'low'
p453
aS'low'
p454
aS'high'
p455
aS'low'
p456
aS'lower-mid'
p457
aS'lower-mid'
p458
aS'higher-mid'
p459
aS'high'
p460
aS'high'
p461
aS'low'
p462
aS'high'
p463
aS'low'
p464
aS'lower-mid'
p465
aS'higher-mid'
p466
aS'higher-mid'
p467
aS'higher-mid'
p468
aS'low'
p469
aS'low'
p470
aS'lower-mid'
p471
aS'high'
p472
aS'higher-mid'
p473
aS'lower-mid'
p474
aS'lower-mid'
p475
aS'high'
p476
aS'high'
p477
aS'low'
p478
aS'high'
p479
aS'high'
p480
aS'high'
p481
aS'high'
p482
aS'low'
p483
aS'lower-mid'
p484
aS'higher-mid'
p485
aS'high'
p486
aS'lower-mid'
p487
aS'low'
p488
aS'low'
p489
aS'high'
p490
aS'low'
p491
aS'low'
p492
aS'higher-mid'
p493
aS'higher-mid'
p494
aS'low'
p495
aS'lower-mid'
p496
aS'lower-mid'
p497
aS'low'
p498
aS'high'
p499
aS'lower-mid'
p500
aS'higher-mid'
p501
aS'high'
p502
aS'higher-mid'
p503
aS'higher-mid'
p504
aS'high'
p505
aS'lower-mid'
p506
aS'high'
p507
aS'lower-mid'
p508
aS'higher-mid'
p509
aS'low'
p510
aS'low'
p511
aS'higher-mid'
p512
aS'low'
p513
aS'lower-mid'
p514
aS'lower-mid'
p515
aS'higher-mid'
p516
aS'higher-mid'
p517
aS'higher-mid'
p518
aS'low'
p519
aS'high'
p520
aS'low'
p521
aS'lower-mid'
p522
aS'higher-mid'
p523
aS'high'
p524
aS'higher-mid'
p525
aS'low'
p526
aS'lower-mid'
p527
aS'lower-mid'
p528
aS'high'
p529
aS'high'
p530
aS'lower-mid'
p531
aS'low'
p532
aS'higher-mid'
p533
aS'high'
p534
aS'low'
p535
aS'high'
p536
aS'high'
p537
aS'high'
p538
aS'higher-mid'
p539
aS'low'
p540
aS'low'
p541
aS'lower-mid'
p542
aS'high'
p543
aS'lower-mid'
p544
aS'low'
p545
aS'low'
p546
aS'high'
p547
aS'low'
p548
aS'lower-mid'
p549
aS'higher-mid'
p550
aS'higher-mid'
p551
aS'low'
p552
aS'higher-mid'
p553
aS'lower-mid'
p554
aS'low'
p555
aS'higher-mid'
p556
aS'lower-mid'
p557
aS'higher-mid'
p558
aS'higher-mid'
p559
aS'higher-mid'
p560
aS'high'
p561
aS'high'
p562
aS'lower-mid'
p563
aS'higher-mid'
p564
aS'lower-mid'
p565
aS'higher-mid'
p566
aS'low'
p567
aS'low'
p568
aS'high'
p569
aS'low'
p570
aS'lower-mid'
p571
aS'lower-mid'
p572
aS'higher-mid'
p573
aS'high'
p574
aS'high'
p575
aS'low'
p576
aS'high'
p577
aS'low'
p578
aS'lower-mid'
p579
aS'higher-mid'
p580
aS'high'
p581
aS'higher-mid'
p582
aS'low'
p583
aS'lower-mid'
p584
aS'lower-mid'
p585
aS'high'
p586
aS'higher-mid'
p587
aS'higher-mid'
p588
aS'lower-mid'
p589
aS'high'
p590
aS'high'
p591
aS'low'
p592
aS'high'
p593
aS'high'
p594
aS'high'
p595
aS'high'
p596
aS'low'
p597
aS'lower-mid'
p598
aS'higher-mid'
p599
aS'high'
p600
aS'low'
p601
aS'low'
p602
aS'low'
p603
aS'high'
p604
aS'low'
p605
aS'lower-mid'
p606
aS'higher-mid'
p607
aS'higher-mid'
p608
aS'low'
p609
aS'lower-mid'
p610
aS'low'
p611
aS'low'
p612
aS'higher-mid'
p613
aS'lower-mid'
p614
aS'high'
p615
aS'high'
p616
aS'higher-mid'
p617
aS'lower-mid'
p618
aS'high'
p619
aS'lower-mid'
p620
aS'higher-mid'
p621
aS'lower-mid'
p622
aS'higher-mid'
p623
aS'low'
p624
aS'lower-mid'
p625
aS'high'
p626
aS'low'
p627
aS'lower-mid'
p628
aS'lower-mid'
p629
aS'higher-mid'
p630
aS'higher-mid'
p631
aS'higher-mid'
p632
aS'low'
p633
aS'high'
p634
aS'low'
p635
aS'lower-mid'
p636
aS'higher-mid'
p637
aS'high'
p638
aS'higher-mid'
p639
aS'lower-mid'
p640
aS'lower-mid'
p641
aS'lower-mid'
p642
aS'high'
p643
aS'higher-mid'
p644
aS'lower-mid'
p645
aS'lower-mid'
p646
aS'high'
p647
aS'high'
p648
aS'low'
p649
aS'high'
p650
aS'lower-mid'
p651
aS'high'
p652
aS'high'
p653
aS'low'
p654
aS'low'
p655
aS'higher-mid'
p656
aS'high'
p657
aS'lower-mid'
p658
aS'low'
p659
aS'low'
p660
aS'high'
p661
aS'low'
p662
aS'low'
p663
aS'higher-mid'
p664
aS'higher-mid'
p665
aS'low'
p666
aS'lower-mid'
p667
aS'low'
p668
aS'low'
p669
aS'high'
p670
aS'lower-mid'
p671
aS'high'
p672
aS'high'
p673
aS'higher-mid'
p674
aS'higher-mid'
p675
aS'high'
p676
aS'lower-mid'
p677
aS'higher-mid'
p678
aS'lower-mid'
p679
aS'higher-mid'
p680
aS'low'
p681
aS'low'
p682
aS'higher-mid'
p683
aS'low'
p684
aS'higher-mid'
p685
aS'lower-mid'
p686
aS'higher-mid'
p687
aS'higher-mid'
p688
aS'high'
p689
aS'low'
p690
aS'high'
p691
aS'low'
p692
aS'lower-mid'
p693
aS'higher-mid'
p694
aS'high'
p695
atp696
bag0
(cpandas.core.categorical
Categorical
p697
g2
Ntp698
Rp699
(dp700
S'_codes'
p701
g13
(g14
(I0
tp702
g16
tp703
Rp704
(I1
(I57
tp705
g20
(S'i1'
p706
I0
I1
tp707
Rp708
(I3
S'|'
p709
NNNI-1
I-1
I0
tp710
bI00
S'\x03\x00\x00\x00\x02\x02\x03\x01\x03\x01\x01\x01\x03\x03\x02\x01\x00\x03\x01\x00\x00\x02\x00\x00\x01\x01\x02\x00\x01\x00\x02\x02\x03\x01\x03\x03\x03\x03\x00\x01\x02\x02\x02\x01\x00\x00\x02\x02\x01\x03\x00\x00\x02\x03\x02\x01\x03'
p711
tp712
bsS'_ordered'
p713
I01
sS'_categories'
p714
g9
(g10
(dp715
g12
g13
(g14
(I0
tp716
g16
tp717
Rp718
(I1
(I4
tp719
g23
I00
(lp720
S'low'
p721
aS'lower-mid'
p722
aS'higher-mid'
p723
aS'high'
p724
atp725
bsg40
Nstp726
Rp727
sg40
g38
sS'_cache'
p728
(dp729
S'ndim'
p730
I1
ssba(lp731
g9
(g10
(dp732
g12
g13
(g14
(I0
tp733
g16
tp734
Rp735
(I1
(I11
tp736
g23
I00
(lp737
g27
ag28
ag29
ag30
ag31
ag32
ag33
ag34
ag35
ag36
ag37
atp738
bsg40
Nstp739
Rp740
ag9
(g10
(dp741
g12
g13
(g14
(I0
tp742
g16
tp743
Rp744
(I1
(I1
tp745
g23
I00
(lp746
g38
atp747
bsg40
Nstp748
Rp749
a(dp750
S'0.14.1'
p751
(dp752
S'axes'
p753
g8
sS'blocks'
p754
(lp755
(dp756
S'mgr_locs'
p757
c__builtin__
slice
p758
(I0
I11
I1
tp759
Rp760
sS'values'
p761
g61
sa(dp762
g757
g758
(I11
I12
I1
tp763
Rp764
sg761
g699
sasstp765
bb.